; Function Attrs: nofree norecurse nosync nounwind memory(read, inaccessiblemem: none) uwtable
define hidden range(i32 -32768, 32769) i32 @mbedtls_mpi_cmp_mpi(ptr noundef readonly captures(none) %0, ptr noundef readonly captures(none) %1) local_unnamed_addr #9 {
  %3 = getelementptr inbounds nuw i8, ptr %0, i64 10
  %4 = load i16, ptr %3, align 2, !tbaa !3
  %.not44 = icmp eq i16 %4, 0
  br i1 %.not44, label %._crit_edge, label %.lr.ph

.lr.ph:                                           ; preds = %2
  %5 = zext i16 %4 to i64
  %6 = load ptr, ptr %0, align 8, !tbaa !12
  %invariant.gep = getelementptr i8, ptr %6, i64 -8
  br label %7

7:                                                ; preds = %.lr.ph, %9
  %.03545 = phi i64 [ %5, %.lr.ph ], [ %10, %9 ]
  %gep = getelementptr i64, ptr %invariant.gep, i64 %.03545
  %8 = load i64, ptr %gep, align 8, !tbaa !17
  %.not39 = icmp eq i64 %8, 0
  br i1 %.not39, label %9, label %._crit_edge

9:                                                ; preds = %7
  %10 = add nsw i64 %.03545, -1
  %.not = icmp eq i64 %10, 0
  br i1 %.not, label %._crit_edge, label %7, !llvm.loop !31

._crit_edge:                                      ; preds = %9, %7, %2
  %.035.lcssa = phi i64 [ 0, %2 ], [ %.03545, %7 ], [ 0, %9 ]
  %11 = getelementptr inbounds nuw i8, ptr %1, i64 10
  %12 = load i16, ptr %11, align 2, !tbaa !3
  %.not4048 = icmp eq i16 %12, 0
  br i1 %.not4048, label %._crit_edge52, label %.lr.ph51

.lr.ph51:                                         ; preds = %._crit_edge
  %13 = zext i16 %12 to i64
  %14 = load ptr, ptr %1, align 8, !tbaa !12
  %invariant.gep56 = getelementptr i8, ptr %14, i64 -8
  br label %15

15:                                               ; preds = %.lr.ph51, %17
  %.049 = phi i64 [ %13, %.lr.ph51 ], [ %18, %17 ]
  %gep57 = getelementptr i64, ptr %invariant.gep56, i64 %.049
  %16 = load i64, ptr %gep57, align 8, !tbaa !17
  %.not41 = icmp eq i64 %16, 0
  br i1 %.not41, label %17, label %._crit_edge52

17:                                               ; preds = %15
  %18 = add nsw i64 %.049, -1
  %.not40 = icmp eq i64 %18, 0
  br i1 %.not40, label %._crit_edge52, label %15, !llvm.loop !37

._crit_edge52:                                    ; preds = %17, %15, %._crit_edge
  %.0.lcssa = phi i64 [ 0, %._crit_edge ], [ %.049, %15 ], [ 0, %17 ]
  %19 = or i64 %.0.lcssa, %.035.lcssa
  %or.cond = icmp eq i64 %19, 0
  br i1 %or.cond, label %.loopexit, label %20

20:                                               ; preds = %._crit_edge52
  %21 = icmp ugt i64 %.035.lcssa, %.0.lcssa
  br i1 %21, label %22, label %26

22:                                               ; preds = %20
  %23 = getelementptr inbounds nuw i8, ptr %0, i64 8
  %24 = load i16, ptr %23, align 8, !tbaa !10
  %25 = sext i16 %24 to i32
  br label %.loopexit

26:                                               ; preds = %20
  %27 = icmp ugt i64 %.0.lcssa, %.035.lcssa
  br i1 %27, label %28, label %33

28:                                               ; preds = %26
  %29 = getelementptr inbounds nuw i8, ptr %1, i64 8
  %30 = load i16, ptr %29, align 8, !tbaa !10
  %31 = sext i16 %30 to i32
  %32 = sub nsw i32 0, %31
  br label %.loopexit

33:                                               ; preds = %26
  %34 = getelementptr inbounds nuw i8, ptr %0, i64 8
  %35 = load i16, ptr %34, align 8, !tbaa !10
  %36 = icmp sgt i16 %35, 0
  %37 = getelementptr inbounds nuw i8, ptr %1, i64 8
  %38 = load i16, ptr %37, align 8, !tbaa !10
  br i1 %36, label %39, label %41

39:                                               ; preds = %33
  %40 = icmp slt i16 %38, 0
  br i1 %40, label %.loopexit, label %.preheader.preheader

41:                                               ; preds = %33
  %42 = icmp sgt i16 %38, 0
  %43 = icmp ne i16 %35, 0
  %or.cond43 = and i1 %43, %42
  br i1 %or.cond43, label %.loopexit, label %.preheader.preheader

.preheader.preheader:                             ; preds = %39, %41
  br label %.preheader

.preheader:                                       ; preds = %.preheader.preheader, %55
  %.1 = phi i64 [ %46, %55 ], [ %.035.lcssa, %.preheader.preheader ]
  %.not42 = icmp eq i64 %.1, 0
  br i1 %.not42, label %.loopexit, label %44

44:                                               ; preds = %.preheader
  %45 = load ptr, ptr %0, align 8, !tbaa !12
  %46 = add nsw i64 %.1, -1
  %47 = getelementptr inbounds nuw i64, ptr %45, i64 %46
  %48 = load i64, ptr %47, align 8, !tbaa !17
  %49 = load ptr, ptr %1, align 8, !tbaa !12
  %50 = getelementptr inbounds nuw i64, ptr %49, i64 %46
  %51 = load i64, ptr %50, align 8, !tbaa !17
  %52 = icmp ugt i64 %48, %51
  br i1 %52, label %53, label %55

53:                                               ; preds = %44
  %54 = sext i16 %35 to i32
  br label %.loopexit

55:                                               ; preds = %44
  %56 = icmp ult i64 %48, %51
  br i1 %56, label %57, label %.preheader, !llvm.loop !38

57:                                               ; preds = %55
  %58 = sext i16 %35 to i32
  %59 = sub nsw i32 0, %58
  br label %.loopexit

.loopexit:                                        ; preds = %.preheader, %41, %39, %._crit_edge52, %57, %53, %28, %22
  %.036 = phi i32 [ %25, %22 ], [ %32, %28 ], [ %54, %53 ], [ %59, %57 ], [ 0, %._crit_edge52 ], [ 1, %39 ], [ -1, %41 ], [ 0, %.preheader ]
  ret i32 %.036
}